; Function Attrs: mustprogress nounwind uwtable
define dso_local void @_ZN5clang13ASTDeclReader18VisitUsingPackDeclEPNS_13UsingPackDeclE(ptr noundef nonnull align 8 dereferenceable(89) %0, ptr noundef %1) local_unnamed_addr #1 align 2 {
  tail call void @_ZN5clang13ASTDeclReader9VisitDeclEPNS_4DeclE(ptr noundef nonnull align 8 dereferenceable(89) %0, ptr noundef %1)
  %3 = getelementptr inbounds nuw i8, ptr %0, i64 16
  %4 = load ptr, ptr %3, align 8
  %5 = tail call i64 @_ZN5clang13serialization15BasicReaderBaseINS_15ASTRecordReaderEE19readDeclarationNameEv(ptr noundef nonnull align 8 dereferenceable(8) %4)
  %6 = getelementptr inbounds nuw i8, ptr %1, i64 40
  store i64 %5, ptr %6, align 8
  %7 = load ptr, ptr %3, align 8
  %8 = getelementptr inbounds nuw i8, ptr %7, i64 32
  %9 = getelementptr inbounds nuw i8, ptr %7, i64 24
  %10 = load i32, ptr %9, align 8
  %11 = add i32 %10, 1
  store i32 %11, ptr %9, align 8
  %12 = zext i32 %10 to i64
  %13 = load ptr, ptr %8, align 8
  %14 = getelementptr inbounds i64, ptr %13, i64 %12
  %15 = load i64, ptr %14, align 8
  %16 = trunc i64 %15 to i32
  %17 = getelementptr inbounds nuw i8, ptr %0, i64 64
  store i32 %16, ptr %17, align 8
  %18 = load ptr, ptr %3, align 8
  %19 = getelementptr inbounds nuw i8, ptr %18, i64 8
  %20 = load ptr, ptr %19, align 8
  %21 = getelementptr inbounds nuw i8, ptr %18, i64 16
  %22 = load ptr, ptr %21, align 8
  %23 = getelementptr inbounds nuw i8, ptr %18, i64 32
  %24 = getelementptr inbounds nuw i8, ptr %18, i64 24
  %25 = tail call i64 @_ZN5clang9ASTReader10ReadDeclIDERNS_13serialization10ModuleFileERKN4llvm15SmallVectorImplImEERj(ptr noundef nonnull align 8 dereferenceable(15968) %20, ptr noundef nonnull align 8 dereferenceable(3464) %22, ptr noundef nonnull align 8 dereferenceable(16) %23, ptr noundef nonnull align 4 dereferenceable(4) %24) #26
  %26 = tail call noundef ptr @_ZN5clang9ASTReader7GetDeclENS_12GlobalDeclIDE(ptr noundef nonnull align 8 dereferenceable(15968) %20, i64 %25) #26
  %27 = getelementptr inbounds nuw i8, ptr %1, i64 48
  store ptr %26, ptr %27, align 8
  %28 = getelementptr inbounds i8, ptr %1, i64 64
  %29 = getelementptr inbounds nuw i8, ptr %1, i64 56
  %30 = load i32, ptr %29, align 8
  %.not9 = icmp eq i32 %30, 0
  br i1 %.not9, label %._crit_edge, label %.lr.ph

.lr.ph:                                           ; preds = %2, %.lr.ph
  %.010 = phi i32 [ %42, %.lr.ph ], [ 0, %2 ]
  %31 = load ptr, ptr %3, align 8
  %32 = getelementptr inbounds nuw i8, ptr %31, i64 8
  %33 = load ptr, ptr %32, align 8
  %34 = getelementptr inbounds nuw i8, ptr %31, i64 16
  %35 = load ptr, ptr %34, align 8
  %36 = getelementptr inbounds nuw i8, ptr %31, i64 32
  %37 = getelementptr inbounds nuw i8, ptr %31, i64 24
  %38 = tail call i64 @_ZN5clang9ASTReader10ReadDeclIDERNS_13serialization10ModuleFileERKN4llvm15SmallVectorImplImEERj(ptr noundef nonnull align 8 dereferenceable(15968) %33, ptr noundef nonnull align 8 dereferenceable(3464) %35, ptr noundef nonnull align 8 dereferenceable(16) %36, ptr noundef nonnull align 4 dereferenceable(4) %37) #26
  %39 = tail call noundef ptr @_ZN5clang9ASTReader7GetDeclENS_12GlobalDeclIDE(ptr noundef nonnull align 8 dereferenceable(15968) %33, i64 %38) #26
  %40 = zext i32 %.010 to i64
  %41 = getelementptr inbounds ptr, ptr %28, i64 %40
  store ptr %39, ptr %41, align 8
  %42 = add i32 %.010, 1
  %43 = load i32, ptr %29, align 8
  %.not = icmp eq i32 %42, %43
  br i1 %.not, label %._crit_edge, label %.lr.ph, !llvm.loop !142

._crit_edge:                                      ; preds = %.lr.ph, %2
  tail call void @_ZN5clang13ASTDeclReader14mergeMergeableINS_13UsingPackDeclEEEvPNS_9MergeableIT_EE(ptr noundef nonnull align 8 dereferenceable(89) %0, ptr noundef nonnull %1)
  ret void
}